target datalayout = "e-m:e-p270:32:32-p271:32:32-p272:64:64-i64:64-i128:128-f80:128-n8:16:32:64-S128"
target triple = "x86_64-pc-linux-gnu"

%struct._object = type { %union.anon, ptr }
%union.anon = type { i64 }
%struct.PyVarObject = type { %struct._object, i64 }

@_Py_tss_tstate = external thread_local global ptr, align 8
@PyExc_ValueError = external global ptr, align 8
@.str.26 = private unnamed_addr constant [19 x i8] c"invalid generation\00", align 1

; Function Attrs: inlinehint nounwind uwtable
define internal ptr @_PyThreadState_GET() #3 {
  %1 = call align 8 ptr @llvm.threadlocal.address.p0(ptr align 8 @_Py_tss_tstate)
  %2 = load ptr, ptr %1, align 8, !tbaa !23
  ret ptr %2
}

; Function Attrs: inlinehint nounwind uwtable
define internal i64 @Py_SIZE(ptr noundef %0) #3 {
  %2 = alloca ptr, align 8
  store ptr %0, ptr %2, align 8, !tbaa !4
  %3 = load ptr, ptr %2, align 8, !tbaa !4
  %4 = getelementptr inbounds nuw %struct.PyVarObject, ptr %3, i32 0, i32 1
  %5 = load i64, ptr %4, align 8, !tbaa !38
  ret i64 %5
}

; Function Attrs: nounwind uwtable
define internal i64 @gc_collect_impl(ptr noundef %0, i32 noundef %1) #0 {
  %3 = alloca i64, align 8
  %4 = alloca ptr, align 8
  %5 = alloca i32, align 4
  %6 = alloca ptr, align 8
  %7 = alloca i32, align 4
  store ptr %0, ptr %4, align 8, !tbaa !4
  store i32 %1, ptr %5, align 4, !tbaa !9
  call void @llvm.lifetime.start.p0(i64 8, ptr %6) #7
  %8 = call ptr @_PyThreadState_GET()
  store ptr %8, ptr %6, align 8, !tbaa !23
  %9 = load i32, ptr %5, align 4, !tbaa !9
  %10 = icmp slt i32 %9, 0
  br i1 %10, label %14, label %11

11:                                               ; preds = %2
  %12 = load i32, ptr %5, align 4, !tbaa !9
  %13 = icmp sge i32 %12, 3
  br i1 %13, label %14, label %17

14:                                               ; preds = %11, %2
  %15 = load ptr, ptr %6, align 8, !tbaa !23
  %16 = load ptr, ptr @PyExc_ValueError, align 8, !tbaa !4
  call void @_PyErr_SetString(ptr noundef %15, ptr noundef %16, ptr noundef @.str.26)
  store i64 -1, ptr %3, align 8
  store i32 1, ptr %7, align 4
  br label %21

17:                                               ; preds = %11
  %18 = load ptr, ptr %6, align 8, !tbaa !23
  %19 = load i32, ptr %5, align 4, !tbaa !9
  %20 = call i64 @_PyGC_Collect(ptr noundef %18, i32 noundef %19, i32 noundef 2)
  store i64 %20, ptr %3, align 8
  store i32 1, ptr %7, align 4
  br label %21

21:                                               ; preds = %17, %14
  call void @llvm.lifetime.end.p0(i64 8, ptr %6) #7
  %22 = load i64, ptr %3, align 8
  ret i64 %22
}

; Function Attrs: inlinehint nounwind uwtable
define internal i64 @PyTuple_GET_SIZE(ptr noundef %0) #3 {
  %2 = alloca ptr, align 8
  %3 = alloca ptr, align 8
  store ptr %0, ptr %2, align 8, !tbaa !4
  call void @llvm.lifetime.start.p0(i64 8, ptr %3) #7
  %4 = load ptr, ptr %2, align 8, !tbaa !4
  store ptr %4, ptr %3, align 8, !tbaa !35
  %5 = load ptr, ptr %3, align 8, !tbaa !35
  %6 = call i64 @Py_SIZE(ptr noundef %5)
  call void @llvm.lifetime.end.p0(i64 8, ptr %3) #7
  ret i64 %6
}

; Function Attrs: nounwind uwtable
define internal ptr @gc_collect(ptr noundef %0, ptr noundef %1, i64 noundef %2, ptr noundef %3) #0 {
  %5 = alloca ptr, align 8
  %6 = alloca ptr, align 8
  %7 = alloca i64, align 8
  %8 = alloca ptr, align 8
  %9 = alloca ptr, align 8
  %10 = alloca [1 x ptr], align 8
  %11 = alloca i64, align 8
  %12 = alloca i32, align 4
  %13 = alloca i64, align 8
  store ptr %0, ptr %5, align 8, !tbaa !4
  store ptr %1, ptr %6, align 8, !tbaa !11
  store i64 %2, ptr %7, align 8, !tbaa !13
  store ptr %3, ptr %8, align 8, !tbaa !4
  call void @llvm.lifetime.start.p0(i64 8, ptr %9) #7
  store ptr null, ptr %9, align 8, !tbaa !4
  call void @llvm.lifetime.start.p0(i64 8, ptr %10) #7
  call void @llvm.lifetime.start.p0(i64 8, ptr %11) #7
  %14 = load i64, ptr %7, align 8, !tbaa !13
  %15 = load ptr, ptr %8, align 8, !tbaa !4
  %16 = icmp ne ptr %15, null
  br i1 %16, label %17, label %20

17:                                               ; preds = %4
  %18 = load ptr, ptr %8, align 8, !tbaa !4
  %19 = call i64 @PyTuple_GET_SIZE(ptr noundef %18)
  br label %21

20:                                               ; preds = %4
  br label %21

21:                                               ; preds = %20, %17
  %22 = phi i64 [ %19, %17 ], [ 0, %20 ]
  %23 = add i64 %14, %22
  %24 = sub i64 %23, 0
  store i64 %24, ptr %11, align 8, !tbaa !13
  call void @llvm.lifetime.start.p0(i64 4, ptr %12) #7
  store i32 2, ptr %12, align 4, !tbaa !9
  call void @llvm.lifetime.start.p0(i64 8, ptr %13) #7
  %25 = load ptr, ptr %8, align 8, !tbaa !4
  %26 = icmp eq ptr %25, null
  br i1 %26, label %27, label %38

27:                                               ; preds = %21
  %28 = load i64, ptr %7, align 8, !tbaa !13
  %29 = icmp sle i64 0, %28
  br i1 %29, label %30, label %38

30:                                               ; preds = %27
  %31 = load i64, ptr %7, align 8, !tbaa !13
  %32 = icmp sle i64 %31, 1
  br i1 %32, label %33, label %38

33:                                               ; preds = %30
  %34 = load ptr, ptr %6, align 8, !tbaa !11
  %35 = icmp ne ptr %34, null
  br i1 %35, label %36, label %38

36:                                               ; preds = %33
  %37 = load ptr, ptr %6, align 8, !tbaa !11
  br label %44

38:                                               ; preds = %33, %30, %27, %21
  %39 = load ptr, ptr %6, align 8, !tbaa !11
  %40 = load i64, ptr %7, align 8, !tbaa !13
  %41 = load ptr, ptr %8, align 8, !tbaa !4
  %42 = getelementptr inbounds [1 x ptr], ptr %10, i64 0, i64 0
  %43 = call ptr @_PyArg_UnpackKeywords(ptr noundef %39, i64 noundef %40, ptr noundef null, ptr noundef %41, ptr noundef @gc_collect._parser, i32 noundef 0, i32 noundef 1, i32 noundef 0, i32 noundef 0, ptr noundef %42)
  br label %44

44:                                               ; preds = %38, %36
  %45 = phi ptr [ %37, %36 ], [ %43, %38 ]
  store ptr %45, ptr %6, align 8, !tbaa !11
  %46 = load ptr, ptr %6, align 8, !tbaa !11
  %47 = icmp ne ptr %46, null
  br i1 %47, label %49, label %48

48:                                               ; preds = %44
  br label %78

49:                                               ; preds = %44
  %50 = load i64, ptr %11, align 8, !tbaa !13
  %51 = icmp ne i64 %50, 0
  br i1 %51, label %53, label %52

52:                                               ; preds = %49
  br label %65

53:                                               ; preds = %49
  %54 = load ptr, ptr %6, align 8, !tbaa !11
  %55 = getelementptr ptr, ptr %54, i64 0
  %56 = load ptr, ptr %55, align 8, !tbaa !4
  %57 = call i32 @PyLong_AsInt(ptr noundef %56)
  store i32 %57, ptr %12, align 4, !tbaa !9
  %58 = load i32, ptr %12, align 4, !tbaa !9
  %59 = icmp eq i32 %58, -1
  br i1 %59, label %60, label %64

60:                                               ; preds = %53
  %61 = call ptr @PyErr_Occurred()
  %62 = icmp ne ptr %61, null
  br i1 %62, label %63, label %64

63:                                               ; preds = %60
  br label %78

64:                                               ; preds = %60, %53
  br label %65

65:                                               ; preds = %64, %52
  %66 = load ptr, ptr %5, align 8, !tbaa !4
  %67 = load i32, ptr %12, align 4, !tbaa !9
  %68 = call i64 @gc_collect_impl(ptr noundef %66, i32 noundef %67)
  store i64 %68, ptr %13, align 8, !tbaa !13
  %69 = load i64, ptr %13, align 8, !tbaa !13
  %70 = icmp eq i64 %69, -1
  br i1 %70, label %71, label %75

71:                                               ; preds = %65
  %72 = call ptr @PyErr_Occurred()
  %73 = icmp ne ptr %72, null
  br i1 %73, label %74, label %75

74:                                               ; preds = %71
  br label %78

75:                                               ; preds = %71, %65
  %76 = load i64, ptr %13, align 8, !tbaa !13
  %77 = call ptr @PyLong_FromSsize_t(i64 noundef %76)
  store ptr %77, ptr %9, align 8, !tbaa !4
  br label %78

78:                                               ; preds = %75, %74, %63, %48
  %79 = load ptr, ptr %9, align 8, !tbaa !4
  call void @llvm.lifetime.end.p0(i64 8, ptr %13) #7
  call void @llvm.lifetime.end.p0(i64 4, ptr %12) #7
  call void @llvm.lifetime.end.p0(i64 8, ptr %11) #7
  call void @llvm.lifetime.end.p0(i64 8, ptr %10) #7
  call void @llvm.lifetime.end.p0(i64 8, ptr %9) #7
  ret ptr %79
}