; Function Attrs: nounwind uwtable
define internal ptr @gc_collect(ptr readnone captures(none) %0, ptr noundef %1, i64 noundef %2, ptr noundef %3) #0 {
  %5 = alloca [1 x ptr], align 8
  call void @llvm.lifetime.start.p0(i64 8, ptr nonnull %5) #5
  %.not = icmp eq ptr %3, null
  br i1 %.not, label %7, label %.thread

.thread:                                          ; preds = %4
  %6 = getelementptr i8, ptr %3, i64 16
  %.val = load i64, ptr %6, align 8, !tbaa !29
  br label %10

7:                                                ; preds = %4
  %8 = icmp ult i64 %2, 2
  %9 = icmp ne ptr %1, null
  %or.cond5 = and i1 %9, %8
  br i1 %or.cond5, label %.thread35, label %10

10:                                               ; preds = %7, %.thread
  %11 = phi i64 [ %.val, %.thread ], [ 0, %7 ]
  %12 = call ptr @_PyArg_UnpackKeywords(ptr noundef %1, i64 noundef %2, ptr noundef null, ptr noundef %3, ptr noundef nonnull @gc_collect._parser, i32 noundef 0, i32 noundef 1, i32 noundef 0, i32 noundef 0, ptr noundef nonnull %5) #5
  %.not29 = icmp eq ptr %12, null
  br i1 %.not29, label %38, label %.thread35

.thread35:                                        ; preds = %7, %10
  %13 = phi ptr [ %12, %10 ], [ %1, %7 ]
  %14 = phi i64 [ %11, %10 ], [ 0, %7 ]
  %15 = sub i64 0, %14
  %.not30 = icmp eq i64 %2, %15
  br i1 %.not30, label %.thread40, label %18

.thread40:                                        ; preds = %.thread35
  %16 = call align 8 ptr @llvm.threadlocal.address.p0(ptr align 8 @_Py_tss_tstate)
  %17 = load ptr, ptr %16, align 8, !tbaa !4
  br label %gc_collect_impl.exit

18:                                               ; preds = %.thread35
  %19 = load ptr, ptr %13, align 8, !tbaa !35
  %20 = call i32 @PyLong_AsInt(ptr noundef %19) #5
  %21 = icmp eq i32 %20, -1
  br i1 %21, label %22, label %26

22:                                               ; preds = %18
  %23 = call ptr @PyErr_Occurred() #5
  %.not31 = icmp eq ptr %23, null
  br i1 %.not31, label %.thread37, label %38

.thread37:                                        ; preds = %22
  %24 = call align 8 ptr @llvm.threadlocal.address.p0(ptr align 8 @_Py_tss_tstate)
  %25 = load ptr, ptr %24, align 8, !tbaa !4
  br label %gc_collect_impl.exit.thread

26:                                               ; preds = %18
  %27 = call align 8 ptr @llvm.threadlocal.address.p0(ptr align 8 @_Py_tss_tstate)
  %28 = load ptr, ptr %27, align 8, !tbaa !4
  %or.cond.i = icmp ugt i32 %20, 2
  br i1 %or.cond.i, label %gc_collect_impl.exit.thread, label %gc_collect_impl.exit

gc_collect_impl.exit.thread:                      ; preds = %26, %.thread37
  %29 = phi ptr [ %25, %.thread37 ], [ %28, %26 ]
  %30 = load ptr, ptr @PyExc_ValueError, align 8, !tbaa !35
  call void @_PyErr_SetString(ptr noundef %29, ptr noundef %30, ptr noundef nonnull @.str.26) #5
  br label %34

gc_collect_impl.exit:                             ; preds = %26, %.thread40
  %31 = phi ptr [ %17, %.thread40 ], [ %28, %26 ]
  %.043 = phi i32 [ 2, %.thread40 ], [ %20, %26 ]
  %32 = call i64 @_PyGC_Collect(ptr noundef %31, i32 noundef %.043, i32 noundef 2) #5
  %33 = icmp eq i64 %32, -1
  br i1 %33, label %34, label %36

34:                                               ; preds = %gc_collect_impl.exit.thread, %gc_collect_impl.exit
  %35 = call ptr @PyErr_Occurred() #5
  %.not32 = icmp eq ptr %35, null
  br i1 %.not32, label %36, label %38

36:                                               ; preds = %34, %gc_collect_impl.exit
  %.0.i45 = phi i64 [ -1, %34 ], [ %32, %gc_collect_impl.exit ]
  %37 = call ptr @PyLong_FromSsize_t(i64 noundef %.0.i45) #5
  br label %38

38:                                               ; preds = %34, %22, %10, %36
  %.024 = phi ptr [ null, %22 ], [ null, %34 ], [ %37, %36 ], [ null, %10 ]
  call void @llvm.lifetime.end.p0(i64 8, ptr nonnull %5) #5
  ret ptr %.024
}